; ModuleID = '30/2548.c'
source_filename = "30/2548.c"
target datalayout = "e-m:e-p270:32:32-p271:32:32-p272:64:64-i64:64-f80:128-n8:16:32:64-S128"
target triple = "x86_64-pc-linux-gnu"

@.str = private unnamed_addr constant [3 x i8] c"%d\00", align 1

; Function Attrs: noinline nounwind uwtable
define dso_local i32 @main() #0 {
  %1 = alloca i32, align 4
  %2 = alloca i32, align 4
  %3 = alloca i32, align 4
  %4 = alloca i32, align 4
  store i32 0, i32* %1, align 4
  store i32 0, i32* %2, align 4
  %5 = call i32 (i8*, ...) @__isoc99_scanf(i8* getelementptr inbounds ([3 x i8], [3 x i8]* @.str, i64 0, i64 0), i32* %3)
  store i32 1, i32* %4, align 4
  br label %6

6:                                                ; preds = %21, %0
  %7 = load i32, i32* %4, align 4
  %8 = load i32, i32* %3, align 4
  %9 = icmp sle i32 %7, %8
  br i1 %9, label %10, label %24

10:                                               ; preds = %6
  %11 = load i32, i32* %4, align 4
  %12 = call i32 @yu7wuguan(i32 %11)
  %13 = icmp ne i32 %12, 0
  br i1 %13, label %14, label %20

14:                                               ; preds = %10
  %15 = load i32, i32* %4, align 4
  %16 = load i32, i32* %4, align 4
  %17 = mul nsw i32 %15, %16
  %18 = load i32, i32* %2, align 4
  %19 = add nsw i32 %18, %17
  store i32 %19, i32* %2, align 4
  br label %20

20:                                               ; preds = %14, %10
  br label %21

21:                                               ; preds = %20
  %22 = load i32, i32* %4, align 4
  %23 = add nsw i32 %22, 1
  store i32 %23, i32* %4, align 4
  br label %6

24:                                               ; preds = %6
  %25 = load i32, i32* %2, align 4
  %26 = call i32 (i8*, ...) @printf(i8* getelementptr inbounds ([3 x i8], [3 x i8]* @.str, i64 0, i64 0), i32 %25)
  ret i32 0
}

declare dso_local i32 @__isoc99_scanf(i8*, ...) #1

; Function Attrs: noinline nounwind uwtable
define dso_local i32 @yu7wuguan(i32 %0) #0 {
  %2 = alloca i32, align 4
  %3 = alloca i32, align 4
  store i32 %0, i32* %3, align 4
  %4 = load i32, i32* %3, align 4
  %5 = srem i32 %4, 7
  %6 = icmp eq i32 %5, 0
  br i1 %6, label %7, label %8

7:                                                ; preds = %1
  store i32 0, i32* %2, align 4
  br label %39

8:                                                ; preds = %1
  %9 = load i32, i32* %3, align 4
  %10 = icmp eq i32 %9, 71
  br i1 %10, label %32, label %11

11:                                               ; preds = %8
  %12 = load i32, i32* %3, align 4
  %13 = icmp eq i32 %12, 72
  br i1 %13, label %32, label %14

14:                                               ; preds = %11
  %15 = load i32, i32* %3, align 4
  %16 = icmp eq i32 %15, 73
  br i1 %16, label %32, label %17

17:                                               ; preds = %14
  %18 = load i32, i32* %3, align 4
  %19 = icmp eq i32 %18, 74
  br i1 %19, label %32, label %20

20:                                               ; preds = %17
  %21 = load i32, i32* %3, align 4
  %22 = icmp eq i32 %21, 75
  br i1 %22, label %32, label %23

23:                                               ; preds = %20
  %24 = load i32, i32* %3, align 4
  %25 = icmp eq i32 %24, 76
  br i1 %25, label %32, label %26

26:                                               ; preds = %23
  %27 = load i32, i32* %3, align 4
  %28 = icmp eq i32 %27, 78
  br i1 %28, label %32, label %29

29:                                               ; preds = %26
  %30 = load i32, i32* %3, align 4
  %31 = icmp eq i32 %30, 79
  br i1 %31, label %32, label %33

32:                                               ; preds = %29, %26, %23, %20, %17, %14, %11, %8
  store i32 0, i32* %2, align 4
  br label %39

33:                                               ; preds = %29
  %34 = load i32, i32* %3, align 4
  %35 = srem i32 %34, 10
  %36 = icmp eq i32 %35, 7
  br i1 %36, label %37, label %38

37:                                               ; preds = %33
  store i32 0, i32* %2, align 4
  br label %39

38:                                               ; preds = %33
  store i32 1, i32* %2, align 4
  br label %39

39:                                               ; preds = %38, %37, %32, %7
  %40 = load i32, i32* %2, align 4
  ret i32 %40
}

declare dso_local i32 @printf(i8*, ...) #1


!llvm.module.flags = !{!0}
!llvm.ident = !{!1}

!0 = !{i32 1, !"wchar_size", i32 4}
!1 = !{!"clang version 10.0.0-4ubuntu1 "}
